; Function Attrs: nounwind uwtable
define dso_local noundef i64 @network_sortsupport(ptr noundef readonly captures(none) %0) local_unnamed_addr #0 {
  %2 = getelementptr inbounds nuw i8, ptr %0, i64 32
  %3 = load i64, ptr %2, align 8
  %4 = inttoptr i64 %3 to ptr
  %5 = getelementptr inbounds nuw i8, ptr %4, i64 24
  store ptr @network_fast_cmp, ptr %5, align 8
  %6 = getelementptr inbounds nuw i8, ptr %4, i64 16
  store ptr null, ptr %6, align 8
  %7 = getelementptr inbounds nuw i8, ptr %4, i64 32
  %8 = load i8, ptr %7, align 8, !range !24, !noundef !25
  %9 = trunc nuw i8 %8 to i1
  br i1 %9, label %10, label %19

10:                                               ; preds = %1
  %11 = load ptr, ptr %4, align 8
  %12 = load ptr, ptr @CurrentMemoryContext, align 8
  store ptr %11, ptr @CurrentMemoryContext, align 8
  %13 = tail call ptr @palloc(i64 noundef 56) #14
  store i64 0, ptr %13, align 8
  %14 = getelementptr inbounds nuw i8, ptr %13, i64 8
  store i8 1, ptr %14, align 8
  %15 = getelementptr inbounds nuw i8, ptr %13, i64 16
  tail call void @initHyperLogLog(ptr noundef nonnull %15, i8 noundef zeroext 10) #14
  store ptr %13, ptr %6, align 8
  store ptr @ssup_datum_unsigned_cmp, ptr %5, align 8
  %16 = getelementptr inbounds nuw i8, ptr %4, i64 40
  store ptr @network_abbrev_convert, ptr %16, align 8
  %17 = getelementptr inbounds nuw i8, ptr %4, i64 48
  store ptr @network_abbrev_abort, ptr %17, align 8
  %18 = getelementptr inbounds nuw i8, ptr %4, i64 56
  store ptr @network_fast_cmp, ptr %18, align 8
  store ptr %12, ptr @CurrentMemoryContext, align 8
  br label %19

19:                                               ; preds = %10, %1
  ret i64 0
}